
ledc.elf：     文件格式 elf32-littlearm


Disassembly of section .text:

87800000 <_start>:
87800000:	e10f0000 	mrs	r0, CPSR
87800004:	e3c0001f 	bic	r0, r0, #31
87800008:	e3800013 	orr	r0, r0, #19
8780000c:	e129f000 	msr	CPSR_fc, r0
87800010:	e51fd004 	ldr	sp, [pc, #-4]	; 87800014 <_start+0x14>
87800014:	80200000 	eorhi	r0, r0, r0
87800018:	00001e41 	andeq	r1, r0, r1, asr #28
8780001c:	61656100 	cmnvs	r5, r0, lsl #2
87800020:	01006962 	tsteq	r0, r2, ror #18
87800024:	00000014 	andeq	r0, r0, r4, lsl r0
87800028:	412d3705 	teqmi	sp, r5, lsl #14
8780002c:	070a0600 	streq	r0, [sl, -r0, lsl #12]
87800030:	09010841 	stmdbeq	r1, {r0, r6, fp}
87800034:	00040a02 	andeq	r0, r4, r2, lsl #20

87800038 <clk_enable>:
87800038:	b4f0      	push	{r4, r5, r6, r7}
8780003a:	f244 0078 	movw	r0, #16504	; 0x4078
8780003e:	f244 0768 	movw	r7, #16488	; 0x4068
87800042:	f244 066c 	movw	r6, #16492	; 0x406c
87800046:	f244 0570 	movw	r5, #16496	; 0x4070
8780004a:	f244 0474 	movw	r4, #16500	; 0x4074
8780004e:	f244 017c 	movw	r1, #16508	; 0x407c
87800052:	f44f 4281 	mov.w	r2, #16512	; 0x4080
87800056:	f04f 33ff 	mov.w	r3, #4294967295	; 0xffffffff
8780005a:	f2c0 270c 	movt	r7, #524	; 0x20c
8780005e:	f2c0 260c 	movt	r6, #524	; 0x20c
87800062:	f2c0 250c 	movt	r5, #524	; 0x20c
87800066:	f2c0 240c 	movt	r4, #524	; 0x20c
8780006a:	f2c0 200c 	movt	r0, #524	; 0x20c
8780006e:	f2c0 210c 	movt	r1, #524	; 0x20c
87800072:	f2c0 220c 	movt	r2, #524	; 0x20c
87800076:	603b      	str	r3, [r7, #0]
87800078:	6033      	str	r3, [r6, #0]
8780007a:	602b      	str	r3, [r5, #0]
8780007c:	6023      	str	r3, [r4, #0]
8780007e:	6003      	str	r3, [r0, #0]
87800080:	bcf0      	pop	{r4, r5, r6, r7}
87800082:	600b      	str	r3, [r1, #0]
87800084:	6013      	str	r3, [r2, #0]
87800086:	4770      	bx	lr

87800088 <led_init>:
87800088:	2068      	movs	r0, #104	; 0x68
8780008a:	f44f 713d 	mov.w	r1, #756	; 0x2f4
8780008e:	f24c 0204 	movw	r2, #49156	; 0xc004
87800092:	f44f 4340 	mov.w	r3, #49152	; 0xc000
87800096:	b4f0      	push	{r4, r5, r6, r7}
87800098:	f2c0 200e 	movt	r0, #526	; 0x20e
8780009c:	2705      	movs	r7, #5
8780009e:	f241 06b0 	movw	r6, #4272	; 0x10b0
878000a2:	2508      	movs	r5, #8
878000a4:	2400      	movs	r4, #0
878000a6:	f2c0 210e 	movt	r1, #526	; 0x20e
878000aa:	f2c0 2209 	movt	r2, #521	; 0x209
878000ae:	f2c0 2309 	movt	r3, #521	; 0x209
878000b2:	6007      	str	r7, [r0, #0]
878000b4:	600e      	str	r6, [r1, #0]
878000b6:	6015      	str	r5, [r2, #0]
878000b8:	601c      	str	r4, [r3, #0]
878000ba:	bcf0      	pop	{r4, r5, r6, r7}
878000bc:	4770      	bx	lr
878000be:	bf00      	nop

878000c0 <led_on>:
878000c0:	f44f 4340 	mov.w	r3, #49152	; 0xc000
878000c4:	f2c0 2309 	movt	r3, #521	; 0x209
878000c8:	681a      	ldr	r2, [r3, #0]
878000ca:	f022 0208 	bic.w	r2, r2, #8
878000ce:	601a      	str	r2, [r3, #0]
878000d0:	4770      	bx	lr
878000d2:	bf00      	nop

878000d4 <led_off>:
878000d4:	f44f 4340 	mov.w	r3, #49152	; 0xc000
878000d8:	f2c0 2309 	movt	r3, #521	; 0x209
878000dc:	681a      	ldr	r2, [r3, #0]
878000de:	f042 0208 	orr.w	r2, r2, #8
878000e2:	601a      	str	r2, [r3, #0]
878000e4:	4770      	bx	lr
878000e6:	bf00      	nop

878000e8 <delay_short>:
878000e8:	b082      	sub	sp, #8
878000ea:	9001      	str	r0, [sp, #4]
878000ec:	9b01      	ldr	r3, [sp, #4]
878000ee:	1e5a      	subs	r2, r3, #1
878000f0:	9201      	str	r2, [sp, #4]
878000f2:	2b00      	cmp	r3, #0
878000f4:	d1fa      	bne.n	878000ec <delay_short+0x4>
878000f6:	b002      	add	sp, #8
878000f8:	4770      	bx	lr
878000fa:	bf00      	nop

878000fc <delay>:
878000fc:	b082      	sub	sp, #8
878000fe:	9001      	str	r0, [sp, #4]
87800100:	9b01      	ldr	r3, [sp, #4]
87800102:	1e5a      	subs	r2, r3, #1
87800104:	9201      	str	r2, [sp, #4]
87800106:	b153      	cbz	r3, 8780011e <delay+0x22>
87800108:	f240 73ff 	movw	r3, #2047	; 0x7ff
8780010c:	461a      	mov	r2, r3
8780010e:	3b01      	subs	r3, #1
87800110:	2a00      	cmp	r2, #0
87800112:	d1fb      	bne.n	8780010c <delay+0x10>
87800114:	9b01      	ldr	r3, [sp, #4]
87800116:	1e5a      	subs	r2, r3, #1
87800118:	9201      	str	r2, [sp, #4]
8780011a:	2b00      	cmp	r3, #0
8780011c:	d1f4      	bne.n	87800108 <delay+0xc>
8780011e:	b002      	add	sp, #8
87800120:	4770      	bx	lr
87800122:	bf00      	nop

87800124 <main>:
87800124:	f244 0668 	movw	r6, #16488	; 0x4068
87800128:	f04f 33ff 	mov.w	r3, #4294967295	; 0xffffffff
8780012c:	f2c0 260c 	movt	r6, #524	; 0x20c
87800130:	f44f 4240 	mov.w	r2, #49152	; 0xc000
87800134:	f244 056c 	movw	r5, #16492	; 0x406c
87800138:	f244 0470 	movw	r4, #16496	; 0x4070
8780013c:	f244 0174 	movw	r1, #16500	; 0x4074
87800140:	f244 0078 	movw	r0, #16504	; 0x4078
87800144:	b580      	push	{r7, lr}
87800146:	f2c0 2209 	movt	r2, #521	; 0x209
8780014a:	6033      	str	r3, [r6, #0]
8780014c:	f2c0 250c 	movt	r5, #524	; 0x20c
87800150:	f2c0 240c 	movt	r4, #524	; 0x20c
87800154:	f2c0 210c 	movt	r1, #524	; 0x20c
87800158:	f2c0 200c 	movt	r0, #524	; 0x20c
8780015c:	f244 077c 	movw	r7, #16508	; 0x407c
87800160:	f44f 4681 	mov.w	r6, #16512	; 0x4080
87800164:	602b      	str	r3, [r5, #0]
87800166:	f2c0 270c 	movt	r7, #524	; 0x20c
8780016a:	6023      	str	r3, [r4, #0]
8780016c:	f2c0 260c 	movt	r6, #524	; 0x20c
87800170:	600b      	str	r3, [r1, #0]
87800172:	2568      	movs	r5, #104	; 0x68
87800174:	6003      	str	r3, [r0, #0]
87800176:	f44f 743d 	mov.w	r4, #756	; 0x2f4
8780017a:	f24c 0104 	movw	r1, #49156	; 0xc004
8780017e:	4610      	mov	r0, r2
87800180:	603b      	str	r3, [r7, #0]
87800182:	f2c0 250e 	movt	r5, #526	; 0x20e
87800186:	6033      	str	r3, [r6, #0]
87800188:	f2c0 240e 	movt	r4, #526	; 0x20e
8780018c:	f2c0 2109 	movt	r1, #521	; 0x209
87800190:	f04f 0e05 	mov.w	lr, #5
87800194:	f241 07b0 	movw	r7, #4272	; 0x10b0
87800198:	2608      	movs	r6, #8
8780019a:	2300      	movs	r3, #0
8780019c:	f8c5 e000 	str.w	lr, [r5]
878001a0:	6027      	str	r7, [r4, #0]
878001a2:	600e      	str	r6, [r1, #0]
878001a4:	6013      	str	r3, [r2, #0]
878001a6:	6803      	ldr	r3, [r0, #0]
878001a8:	f44f 71fa 	mov.w	r1, #500	; 0x1f4
878001ac:	f043 0308 	orr.w	r3, r3, #8
878001b0:	6003      	str	r3, [r0, #0]
878001b2:	460b      	mov	r3, r1
878001b4:	3901      	subs	r1, #1
878001b6:	b14b      	cbz	r3, 878001cc <main+0xa8>
878001b8:	f240 73ff 	movw	r3, #2047	; 0x7ff
878001bc:	461a      	mov	r2, r3
878001be:	3b01      	subs	r3, #1
878001c0:	2a00      	cmp	r2, #0
878001c2:	d1fb      	bne.n	878001bc <main+0x98>
878001c4:	460b      	mov	r3, r1
878001c6:	3901      	subs	r1, #1
878001c8:	2b00      	cmp	r3, #0
878001ca:	d1f5      	bne.n	878001b8 <main+0x94>
878001cc:	6803      	ldr	r3, [r0, #0]
878001ce:	f44f 71fa 	mov.w	r1, #500	; 0x1f4
878001d2:	f023 0308 	bic.w	r3, r3, #8
878001d6:	6003      	str	r3, [r0, #0]
878001d8:	460b      	mov	r3, r1
878001da:	3901      	subs	r1, #1
878001dc:	2b00      	cmp	r3, #0
878001de:	d0e2      	beq.n	878001a6 <main+0x82>
878001e0:	f240 73ff 	movw	r3, #2047	; 0x7ff
878001e4:	461a      	mov	r2, r3
878001e6:	3b01      	subs	r3, #1
878001e8:	2a00      	cmp	r2, #0
878001ea:	d1fb      	bne.n	878001e4 <main+0xc0>
878001ec:	e7f4      	b.n	878001d8 <main+0xb4>
878001ee:	bf00      	nop
878001f0:	3a434347 	bcc	888d0f14 <__bss_end+0x10d0ccb>
878001f4:	694c2820 	stmdbvs	ip, {r5, fp, sp}^
878001f8:	6f72616e 	svcvs	0x0072616e
878001fc:	43434720 	movtmi	r4, #14112	; 0x3720
87800200:	392e3420 	stmdbcc	lr!, {r5, sl, ip, sp}
87800204:	3130322d 	teqcc	r0, sp, lsr #4
87800208:	31302e37 	teqcc	r0, r7, lsr lr
8780020c:	2e342029 	cdpcs	0, 3, cr2, cr4, cr9, {1}
87800210:	00342e39 	eorseq	r2, r4, r9, lsr lr
87800214:	00003441 	andeq	r3, r0, r1, asr #8
87800218:	61656100 	cmnvs	r5, r0, lsl #2
8780021c:	01006962 	tsteq	r0, r2, ror #18
87800220:	0000002a 	andeq	r0, r0, sl, lsr #32
87800224:	412d3705 	teqmi	sp, r5, lsl #14
87800228:	070a0600 	streq	r0, [sl, -r0, lsl #12]
8780022c:	09010841 	stmdbeq	r1, {r0, r6, fp}
87800230:	12040a02 	andne	r0, r4, #8192	; 0x2000
87800234:	15011404 	strne	r1, [r1, #-1028]	; 0x404
87800238:	18031701 	stmdane	r3, {r0, r8, r9, sl, ip}
8780023c:	1a011901 	bne	87846648 <__bss_end+0x463ff>
87800240:	1c031b02 	stcne	11, cr1, [r3], {2}
87800244:	22021e01 	andcs	r1, r2, #1, 28
87800248:	地址 0x0000000087800248 越界。

